target datalayout = "e-m:e-p270:32:32-p271:32:32-p272:64:64-i64:64-i128:128-f80:128-n8:16:32:64-S128"
target triple = "x86_64-unknown-linux-gnu"

%struct.asn1_string_st = type { i32, i32, ptr, i64 }

@.str = private unnamed_addr constant [127 x i8] c"generated/home/dtcxzyw/WorkSpace/Projects/compilers/llvm-opt-benchmark/bench/libquic/libquic/boringssl/crypto/x509v3/v3_conf.c\00", align 1
@.str.1 = private unnamed_addr constant [6 x i8] c"name=\00", align 1
@.str.7 = private unnamed_addr constant [7 x i8] c"value=\00", align 1

; Function Attrs: nounwind uwtable
define internal ptr @generic_asn1(ptr noundef %value, ptr noundef %ctx, ptr noundef %ext_len) #0 {
entry:
  %retval = alloca ptr, align 8
  %value.addr = alloca ptr, align 8
  %ctx.addr = alloca ptr, align 8
  %ext_len.addr = alloca ptr, align 8
  %typ = alloca ptr, align 8
  %ext_der = alloca ptr, align 8
  store ptr %value, ptr %value.addr, align 8
  store ptr %ctx, ptr %ctx.addr, align 8
  store ptr %ext_len, ptr %ext_len.addr, align 8
  store ptr null, ptr %ext_der, align 8
  %0 = load ptr, ptr %value.addr, align 8
  %1 = load ptr, ptr %ctx.addr, align 8
  %call = call ptr @ASN1_generate_v3(ptr noundef %0, ptr noundef %1)
  store ptr %call, ptr %typ, align 8
  %2 = load ptr, ptr %typ, align 8
  %cmp = icmp eq ptr %2, null
  br i1 %cmp, label %if.then, label %if.end

if.then:                                          ; preds = %entry
  store ptr null, ptr %retval, align 8
  br label %return

if.end:                                           ; preds = %entry
  %3 = load ptr, ptr %typ, align 8
  %call1 = call i32 @i2d_ASN1_TYPE(ptr noundef %3, ptr noundef %ext_der)
  %conv = sext i32 %call1 to i64
  %4 = load ptr, ptr %ext_len.addr, align 8
  store i64 %conv, ptr %4, align 8
  %5 = load ptr, ptr %typ, align 8
  call void @ASN1_TYPE_free(ptr noundef %5)
  %6 = load ptr, ptr %ext_der, align 8
  store ptr %6, ptr %retval, align 8
  br label %return

return:                                           ; preds = %if.end, %if.then
  %7 = load ptr, ptr %retval, align 8
  ret ptr %7
}

; Function Attrs: nounwind uwtable
define internal ptr @v3_generic_extension(ptr noundef %ext, ptr noundef %value, i32 noundef %crit, i32 noundef %gen_type, ptr noundef %ctx) #0 {
entry:
  %ext.addr = alloca ptr, align 8
  %value.addr = alloca ptr, align 8
  %crit.addr = alloca i32, align 4
  %gen_type.addr = alloca i32, align 4
  %ctx.addr = alloca ptr, align 8
  %ext_der = alloca ptr, align 8
  %ext_len = alloca i64, align 8
  %obj = alloca ptr, align 8
  %oct = alloca ptr, align 8
  %extension = alloca ptr, align 8
  store ptr %ext, ptr %ext.addr, align 8
  store ptr %value, ptr %value.addr, align 8
  store i32 %crit, ptr %crit.addr, align 4
  store i32 %gen_type, ptr %gen_type.addr, align 4
  store ptr %ctx, ptr %ctx.addr, align 8
  store ptr null, ptr %ext_der, align 8
  store i64 0, ptr %ext_len, align 8
  store ptr null, ptr %obj, align 8
  store ptr null, ptr %oct, align 8
  store ptr null, ptr %extension, align 8
  %0 = load ptr, ptr %ext.addr, align 8
  %call = call ptr @OBJ_txt2obj(ptr noundef %0, i32 noundef 0)
  store ptr %call, ptr %obj, align 8
  %tobool = icmp ne ptr %call, null
  br i1 %tobool, label %if.end, label %if.then

if.then:                                          ; preds = %entry
  call void @ERR_put_error(i32 noundef 20, i32 noundef 0, i32 noundef 113, ptr noundef @.str, i32 noundef 273)
  %1 = load ptr, ptr %ext.addr, align 8
  call void (i32, ...) @ERR_add_error_data(i32 noundef 2, ptr noundef @.str.1, ptr noundef %1)
  br label %err

if.end:                                           ; preds = %entry
  %2 = load i32, ptr %gen_type.addr, align 4
  %cmp = icmp eq i32 %2, 1
  br i1 %cmp, label %if.then1, label %if.else

if.then1:                                         ; preds = %if.end
  %3 = load ptr, ptr %value.addr, align 8
  %call2 = call ptr @string_to_hex(ptr noundef %3, ptr noundef %ext_len)
  store ptr %call2, ptr %ext_der, align 8
  br label %if.end7

if.else:                                          ; preds = %if.end
  %4 = load i32, ptr %gen_type.addr, align 4
  %cmp3 = icmp eq i32 %4, 2
  br i1 %cmp3, label %if.then4, label %if.end6

if.then4:                                         ; preds = %if.else
  %5 = load ptr, ptr %value.addr, align 8
  %6 = load ptr, ptr %ctx.addr, align 8
  %call5 = call ptr @generic_asn1(ptr noundef %5, ptr noundef %6, ptr noundef %ext_len)
  store ptr %call5, ptr %ext_der, align 8
  br label %if.end6

if.end6:                                          ; preds = %if.then4, %if.else
  br label %if.end7

if.end7:                                          ; preds = %if.end6, %if.then1
  %7 = load ptr, ptr %ext_der, align 8
  %cmp8 = icmp eq ptr %7, null
  br i1 %cmp8, label %if.then9, label %if.end10

if.then9:                                         ; preds = %if.end7
  call void @ERR_put_error(i32 noundef 20, i32 noundef 0, i32 noundef 116, ptr noundef @.str, i32 noundef 284)
  %8 = load ptr, ptr %value.addr, align 8
  call void (i32, ...) @ERR_add_error_data(i32 noundef 2, ptr noundef @.str.7, ptr noundef %8)
  br label %err

if.end10:                                         ; preds = %if.end7
  %call11 = call ptr @ASN1_STRING_type_new(i32 noundef 4)
  store ptr %call11, ptr %oct, align 8
  %tobool12 = icmp ne ptr %call11, null
  br i1 %tobool12, label %if.end14, label %if.then13

if.then13:                                        ; preds = %if.end10
  call void @ERR_put_error(i32 noundef 20, i32 noundef 0, i32 noundef 65, ptr noundef @.str, i32 noundef 290)
  br label %err

if.end14:                                         ; preds = %if.end10
  %9 = load ptr, ptr %ext_der, align 8
  %10 = load ptr, ptr %oct, align 8
  %data = getelementptr inbounds %struct.asn1_string_st, ptr %10, i32 0, i32 2
  store ptr %9, ptr %data, align 8
  %11 = load i64, ptr %ext_len, align 8
  %conv = trunc i64 %11 to i32
  %12 = load ptr, ptr %oct, align 8
  %length = getelementptr inbounds %struct.asn1_string_st, ptr %12, i32 0, i32 0
  store i32 %conv, ptr %length, align 8
  store ptr null, ptr %ext_der, align 8
  %13 = load ptr, ptr %obj, align 8
  %14 = load i32, ptr %crit.addr, align 4
  %15 = load ptr, ptr %oct, align 8
  %call15 = call ptr @X509_EXTENSION_create_by_OBJ(ptr noundef null, ptr noundef %13, i32 noundef %14, ptr noundef %15)
  store ptr %call15, ptr %extension, align 8
  br label %err

err:                                              ; preds = %if.end14, %if.then13, %if.then9, %if.then
  %16 = load ptr, ptr %obj, align 8
  call void @ASN1_OBJECT_free(ptr noundef %16)
  %17 = load ptr, ptr %oct, align 8
  call void @ASN1_STRING_free(ptr noundef %17)
  %18 = load ptr, ptr %ext_der, align 8
  %tobool16 = icmp ne ptr %18, null
  br i1 %tobool16, label %if.then17, label %if.end18

if.then17:                                        ; preds = %err
  %19 = load ptr, ptr %ext_der, align 8
  call void @free(ptr noundef %19) #8
  br label %if.end18

if.end18:                                         ; preds = %if.then17, %err
  %20 = load ptr, ptr %extension, align 8
  ret ptr %20
}