; Function Attrs: nounwind uwtable
define internal fastcc ptr @v3_generic_extension(ptr noundef %ext, ptr noundef %value, i32 noundef range(i32 0, 2) %crit, i32 noundef range(i32 1, 0) %gen_type, ptr noundef %ctx) unnamed_addr #0 {
entry:
  %ext_der.i = alloca ptr, align 8
  %ext_len = alloca i64, align 8
  store i64 0, ptr %ext_len, align 8
  %call = tail call ptr @OBJ_txt2obj(ptr noundef %ext, i32 noundef 0) #10
  %tobool.not = icmp eq ptr %call, null
  br i1 %tobool.not, label %if.then, label %if.end

if.then:                                          ; preds = %entry
  tail call void @ERR_put_error(i32 noundef 20, i32 noundef 0, i32 noundef 113, ptr noundef nonnull @.str, i32 noundef 273) #10
  tail call void (i32, ...) @ERR_add_error_data(i32 noundef 2, ptr noundef nonnull @.str.1, ptr noundef %ext) #10
  br label %err

if.end:                                           ; preds = %entry
  switch i32 %gen_type, label %if.then9 [
    i32 1, label %if.then1
    i32 2, label %if.then4
  ]

if.then1:                                         ; preds = %if.end
  %call2 = call ptr @string_to_hex(ptr noundef %value, ptr noundef nonnull %ext_len) #10
  br label %if.end7

if.then4:                                         ; preds = %if.end
  call void @llvm.lifetime.start.p0(i64 8, ptr nonnull %ext_der.i)
  store ptr null, ptr %ext_der.i, align 8
  %call.i = tail call ptr @ASN1_generate_v3(ptr noundef %value, ptr noundef %ctx) #10
  %cmp.i = icmp eq ptr %call.i, null
  br i1 %cmp.i, label %generic_asn1.exit, label %if.end.i

if.end.i:                                         ; preds = %if.then4
  %call1.i = call i32 @i2d_ASN1_TYPE(ptr noundef nonnull %call.i, ptr noundef nonnull %ext_der.i) #10
  %conv.i = sext i32 %call1.i to i64
  store i64 %conv.i, ptr %ext_len, align 8
  call void @ASN1_TYPE_free(ptr noundef nonnull %call.i) #10
  %0 = load ptr, ptr %ext_der.i, align 8
  br label %generic_asn1.exit

generic_asn1.exit:                                ; preds = %if.then4, %if.end.i
  %retval.0.i = phi ptr [ %0, %if.end.i ], [ null, %if.then4 ]
  call void @llvm.lifetime.end.p0(i64 8, ptr nonnull %ext_der.i)
  br label %if.end7

if.end7:                                          ; preds = %generic_asn1.exit, %if.then1
  %ext_der.1 = phi ptr [ %call2, %if.then1 ], [ %retval.0.i, %generic_asn1.exit ]
  %cmp8 = icmp eq ptr %ext_der.1, null
  br i1 %cmp8, label %if.then9, label %if.end10

if.then9:                                         ; preds = %if.end, %if.end7
  call void @ERR_put_error(i32 noundef 20, i32 noundef 0, i32 noundef 116, ptr noundef nonnull @.str, i32 noundef 284) #10
  call void (i32, ...) @ERR_add_error_data(i32 noundef 2, ptr noundef nonnull @.str.7, ptr noundef %value) #10
  br label %err

if.end10:                                         ; preds = %if.end7
  %call11 = call ptr @ASN1_STRING_type_new(i32 noundef 4) #10
  %tobool12.not = icmp eq ptr %call11, null
  br i1 %tobool12.not, label %if.then13, label %if.end14

if.then13:                                        ; preds = %if.end10
  call void @ERR_put_error(i32 noundef 20, i32 noundef 0, i32 noundef 65, ptr noundef nonnull @.str, i32 noundef 290) #10
  br label %err

if.end14:                                         ; preds = %if.end10
  %data = getelementptr inbounds nuw i8, ptr %call11, i64 8
  store ptr %ext_der.1, ptr %data, align 8
  %1 = load i64, ptr %ext_len, align 8
  %conv = trunc i64 %1 to i32
  store i32 %conv, ptr %call11, align 8
  %call15 = call ptr @X509_EXTENSION_create_by_OBJ(ptr noundef null, ptr noundef nonnull %call, i32 noundef %crit, ptr noundef nonnull %call11) #10
  br label %err

err:                                              ; preds = %if.end14, %if.then13, %if.then9, %if.then
  %ext_der.0 = phi ptr [ null, %if.then9 ], [ null, %if.end14 ], [ %ext_der.1, %if.then13 ], [ null, %if.then ]
  %oct.0 = phi ptr [ null, %if.then9 ], [ %call11, %if.end14 ], [ null, %if.then13 ], [ null, %if.then ]
  %extension.0 = phi ptr [ null, %if.then9 ], [ %call15, %if.end14 ], [ null, %if.then13 ], [ null, %if.then ]
  call void @ASN1_OBJECT_free(ptr noundef %call) #10
  call void @ASN1_STRING_free(ptr noundef %oct.0) #10
  %tobool16.not = icmp eq ptr %ext_der.0, null
  br i1 %tobool16.not, label %if.end18, label %if.then17

if.then17:                                        ; preds = %err
  call void @free(ptr noundef nonnull %ext_der.0) #10
  br label %if.end18

if.end18:                                         ; preds = %if.then17, %err
  ret ptr %extension.0
}